target datalayout = "e-m:e-p270:32:32-p271:32:32-p272:64:64-i64:64-i128:128-f80:128-n8:16:32:64-S128"
target triple = "x86_64-pc-linux-gnu"

%struct.Vector4 = type { float, float, float, float }

; Function Attrs: nounwind uwtable
define float @Vector4DotProduct(<2 x float> %0, <2 x float> %1, <2 x float> %2, <2 x float> %3) #9 {
  %5 = alloca %struct.Vector4, align 4
  %6 = alloca %struct.Vector4, align 4
  %7 = alloca float, align 4
  %8 = getelementptr inbounds nuw { <2 x float>, <2 x float> }, ptr %5, i32 0, i32 0
  store <2 x float> %0, ptr %8, align 4
  %9 = getelementptr inbounds nuw { <2 x float>, <2 x float> }, ptr %5, i32 0, i32 1
  store <2 x float> %1, ptr %9, align 4
  %10 = getelementptr inbounds nuw { <2 x float>, <2 x float> }, ptr %6, i32 0, i32 0
  store <2 x float> %2, ptr %10, align 4
  %11 = getelementptr inbounds nuw { <2 x float>, <2 x float> }, ptr %6, i32 0, i32 1
  store <2 x float> %3, ptr %11, align 4
  call void @llvm.lifetime.start.p0(i64 4, ptr %7) #16
  %12 = getelementptr inbounds nuw %struct.Vector4, ptr %5, i32 0, i32 0
  %13 = load float, ptr %12, align 4
  %14 = getelementptr inbounds nuw %struct.Vector4, ptr %6, i32 0, i32 0
  %15 = load float, ptr %14, align 4
  %16 = getelementptr inbounds nuw %struct.Vector4, ptr %5, i32 0, i32 1
  %17 = load float, ptr %16, align 4
  %18 = getelementptr inbounds nuw %struct.Vector4, ptr %6, i32 0, i32 1
  %19 = load float, ptr %18, align 4
  %20 = fmul float %17, %19
  %21 = call float @llvm.fmuladd.f32(float %13, float %15, float %20)
  %22 = getelementptr inbounds nuw %struct.Vector4, ptr %5, i32 0, i32 2
  %23 = load float, ptr %22, align 4
  %24 = getelementptr inbounds nuw %struct.Vector4, ptr %6, i32 0, i32 2
  %25 = load float, ptr %24, align 4
  %26 = call float @llvm.fmuladd.f32(float %23, float %25, float %21)
  %27 = getelementptr inbounds nuw %struct.Vector4, ptr %5, i32 0, i32 3
  %28 = load float, ptr %27, align 4
  %29 = getelementptr inbounds nuw %struct.Vector4, ptr %6, i32 0, i32 3
  %30 = load float, ptr %29, align 4
  %31 = call float @llvm.fmuladd.f32(float %28, float %30, float %26)
  store float %31, ptr %7, align 4
  %32 = load float, ptr %7, align 4
  call void @llvm.lifetime.end.p0(i64 4, ptr %7) #16
  ret float %32
}