; Function Attrs: mustprogress nofree norecurse nosync nounwind willreturn memory(none) uwtable
define float @Vector4DotProduct(<2 x float> %0, <2 x float> %1, <2 x float> %2, <2 x float> %3) local_unnamed_addr #17 {
  %.sroa.01.0.vec.extract = extractelement <2 x float> %0, i64 0
  %.sroa.0.0.vec.extract = extractelement <2 x float> %2, i64 0
  %5 = fmul <2 x float> %0, %2
  %6 = extractelement <2 x float> %5, i64 1
  %7 = tail call float @llvm.fmuladd.f32(float %.sroa.01.0.vec.extract, float %.sroa.0.0.vec.extract, float %6)
  %.sroa.32.8.vec.extract = extractelement <2 x float> %1, i64 0
  %.sroa.3.8.vec.extract = extractelement <2 x float> %3, i64 0
  %8 = tail call float @llvm.fmuladd.f32(float %.sroa.32.8.vec.extract, float %.sroa.3.8.vec.extract, float %7)
  %.sroa.32.12.vec.extract = extractelement <2 x float> %1, i64 1
  %.sroa.3.12.vec.extract = extractelement <2 x float> %3, i64 1
  %9 = tail call float @llvm.fmuladd.f32(float %.sroa.32.12.vec.extract, float %.sroa.3.12.vec.extract, float %8)
  ret float %9
}